target datalayout = "e-m:e-p270:32:32-p271:32:32-p272:64:64-i64:64-i128:128-f80:128-n8:16:32:64-S128"
target triple = "x86_64-pc-linux-gnu"

%struct.AVRational = type { i32, i32 }
%struct.AVStream = type { ptr, i32, i32, ptr, ptr, %struct.AVRational, i64, i64, i64, i32, i32, %struct.AVRational, ptr, %struct.AVRational, %struct.AVPacket, i32, %struct.AVRational, i32 }
%struct.AVPacket = type { ptr, i64, i64, ptr, i32, i32, i32, ptr, i32, i64, i64, ptr, ptr, %struct.AVRational }
%struct.MovieStream = type { ptr, ptr, ptr, i64, i64, ptr, i32 }
%struct.AVCodecParameters = type { i32, i32, i32, ptr, i32, ptr, i32, i32, i64, i32, i32, i32, i32, i32, i32, %struct.AVRational, %struct.AVRational, i32, i32, i32, i32, i32, i32, i32, %struct.AVChannelLayout, i32, i32, i32, i32, i32, i32 }
%struct.AVChannelLayout = type { i32, i32, %union.anon.2, ptr }
%union.anon.2 = type { i64 }

@.str.46 = private unnamed_addr constant [99 x i8] c"Channel layout is not set in stream %d, and could not be guessed from the number of channels (%d)\0A\00", align 1
@.str.47 = private unnamed_addr constant [79 x i8] c"Channel layout is not set in output stream %d, guessed channel layout is '%s'\0A\00", align 1

; Function Attrs: nounwind uwtable
define internal i32 @guess_channel_layout(ptr noundef %0, i32 noundef %1, ptr noundef %2) #1 {
  %4 = alloca i32, align 4
  %5 = alloca ptr, align 8
  %6 = alloca i32, align 4
  %7 = alloca ptr, align 8
  %8 = alloca ptr, align 8
  %9 = alloca [256 x i8], align 16
  %10 = alloca %struct.AVChannelLayout, align 8
  %11 = alloca i32, align 4
  store ptr %0, ptr %5, align 8, !tbaa !105
  store i32 %1, ptr %6, align 4, !tbaa !26
  store ptr %2, ptr %7, align 8, !tbaa !114
  call void @llvm.lifetime.start.p0(i64 8, ptr %8) #11
  %12 = load ptr, ptr %5, align 8, !tbaa !105
  %13 = getelementptr inbounds nuw %struct.MovieStream, ptr %12, i32 0, i32 1
  %14 = load ptr, ptr %13, align 8, !tbaa !74
  %15 = getelementptr inbounds nuw %struct.AVStream, ptr %14, i32 0, i32 3
  %16 = load ptr, ptr %15, align 8, !tbaa !89
  store ptr %16, ptr %8, align 8, !tbaa !106
  call void @llvm.lifetime.start.p0(i64 256, ptr %9) #11
  call void @llvm.lifetime.start.p0(i64 24, ptr %10) #11
  call void @llvm.memset.p0.i64(ptr align 8 %10, i8 0, i64 24, i1 false)
  %17 = load ptr, ptr %8, align 8, !tbaa !106
  %18 = getelementptr inbounds nuw %struct.AVCodecParameters, ptr %17, i32 0, i32 24
  %19 = getelementptr inbounds nuw %struct.AVChannelLayout, ptr %18, i32 0, i32 1
  %20 = load i32, ptr %19, align 4, !tbaa !98
  call void @av_channel_layout_default(ptr noundef %10, i32 noundef %20)
  %21 = getelementptr inbounds nuw %struct.AVChannelLayout, ptr %10, i32 0, i32 0
  %22 = load i32, ptr %21, align 8, !tbaa !148
  %23 = icmp eq i32 %22, 0
  br i1 %23, label %24, label %28

24:                                               ; preds = %3
  %25 = getelementptr inbounds nuw %struct.AVChannelLayout, ptr %10, i32 0, i32 1
  %26 = load i32, ptr %25, align 4, !tbaa !149
  %27 = icmp ne i32 %26, 0
  br i1 %27, label %29, label %39

28:                                               ; preds = %3
  br i1 false, label %29, label %39

29:                                               ; preds = %28, %24
  %30 = load ptr, ptr %7, align 8, !tbaa !114
  %31 = load i32, ptr %6, align 4, !tbaa !26
  %32 = load ptr, ptr %8, align 8, !tbaa !106
  %33 = getelementptr inbounds nuw %struct.AVCodecParameters, ptr %32, i32 0, i32 24
  %34 = getelementptr inbounds nuw %struct.AVChannelLayout, ptr %33, i32 0, i32 1
  %35 = load i32, ptr %34, align 4, !tbaa !98
  call void (ptr, i32, ptr, ...) @av_log(ptr noundef %30, i32 noundef 24, ptr noundef @.str.46, i32 noundef %31, i32 noundef %35)
  %36 = load ptr, ptr %8, align 8, !tbaa !106
  %37 = getelementptr inbounds nuw %struct.AVCodecParameters, ptr %36, i32 0, i32 24
  %38 = call i32 @av_channel_layout_copy(ptr noundef %37, ptr noundef %10)
  store i32 %38, ptr %4, align 4
  store i32 1, ptr %11, align 4
  br label %48

39:                                               ; preds = %28, %24
  %40 = getelementptr inbounds [256 x i8], ptr %9, i64 0, i64 0
  %41 = call i32 @av_channel_layout_describe(ptr noundef %10, ptr noundef %40, i64 noundef 256)
  %42 = load ptr, ptr %7, align 8, !tbaa !114
  %43 = load i32, ptr %6, align 4, !tbaa !26
  %44 = getelementptr inbounds [256 x i8], ptr %9, i64 0, i64 0
  call void (ptr, i32, ptr, ...) @av_log(ptr noundef %42, i32 noundef 24, ptr noundef @.str.47, i32 noundef %43, ptr noundef %44)
  %45 = load ptr, ptr %8, align 8, !tbaa !106
  %46 = getelementptr inbounds nuw %struct.AVCodecParameters, ptr %45, i32 0, i32 24
  %47 = call i32 @av_channel_layout_copy(ptr noundef %46, ptr noundef %10)
  store i32 %47, ptr %4, align 4
  store i32 1, ptr %11, align 4
  br label %48

48:                                               ; preds = %39, %29
  call void @llvm.lifetime.end.p0(i64 24, ptr %10) #11
  call void @llvm.lifetime.end.p0(i64 256, ptr %9) #11
  call void @llvm.lifetime.end.p0(i64 8, ptr %8) #11
  %49 = load i32, ptr %4, align 4
  ret i32 %49
}