; Function Attrs: nounwind uwtable
define internal fastcc i32 @guess_channel_layout(ptr %.8.val.16.val, i32 noundef %0, ptr noundef %1) unnamed_addr #1 {
  %3 = alloca [256 x i8], align 16
  %4 = alloca %struct.AVChannelLayout, align 8
  call void @llvm.lifetime.start.p0(i64 256, ptr nonnull %3) #13
  call void @llvm.lifetime.start.p0(i64 24, ptr nonnull %4) #13
  call void @llvm.memset.p0.i64(ptr noundef nonnull align 8 dereferenceable(24) %4, i8 0, i64 24, i1 false)
  %5 = getelementptr inbounds nuw i8, ptr %.8.val.16.val, i64 132
  %6 = load i32, ptr %5, align 4, !tbaa !92
  call void @av_channel_layout_default(ptr noundef nonnull %4, i32 noundef %6) #13
  %7 = load i32, ptr %4, align 8, !tbaa !135
  %8 = icmp eq i32 %7, 0
  %9 = getelementptr inbounds nuw i8, ptr %4, i64 4
  %10 = load i32, ptr %9, align 4
  %11 = icmp ne i32 %10, 0
  %or.cond = select i1 %8, i1 %11, i1 false
  br i1 %or.cond, label %12, label %14

12:                                               ; preds = %2
  %13 = load i32, ptr %5, align 4, !tbaa !92
  call void (ptr, i32, ptr, ...) @av_log(ptr noundef %1, i32 noundef 24, ptr noundef nonnull @.str.46, i32 noundef %0, i32 noundef %13) #13
  br label %16

14:                                               ; preds = %2
  %15 = call i32 @av_channel_layout_describe(ptr noundef nonnull %4, ptr noundef nonnull %3, i64 noundef 256) #13
  call void (ptr, i32, ptr, ...) @av_log(ptr noundef %1, i32 noundef 24, ptr noundef nonnull @.str.47, i32 noundef %0, ptr noundef nonnull %3) #13
  br label %16

16:                                               ; preds = %14, %12
  %17 = getelementptr inbounds nuw i8, ptr %.8.val.16.val, i64 128
  %18 = call i32 @av_channel_layout_copy(ptr noundef nonnull %17, ptr noundef nonnull %4) #13
  call void @llvm.lifetime.end.p0(i64 24, ptr nonnull %4) #13
  call void @llvm.lifetime.end.p0(i64 256, ptr nonnull %3) #13
  ret i32 %18
}